target datalayout = "e-m:e-p270:32:32-p271:32:32-p272:64:64-i64:64-i128:128-f80:128-n8:16:32:64-S128"
target triple = "x86_64-pc-linux-gnu"

%struct.mspack_system = type { ptr, ptr, ptr, ptr, ptr, ptr, ptr, ptr, ptr, ptr, ptr }
%struct.msszdd_decompressor_p = type { %struct.msszdd_decompressor, ptr, i32 }
%struct.msszdd_decompressor = type { ptr, ptr, ptr, ptr, ptr }
%struct.msszddd_header_p = type { %struct.msszddd_header, ptr }
%struct.msszddd_header = type { i32, i64, i8 }

; Function Attrs: nounwind uwtable
define internal i32 @szddd_extract(ptr noundef %0, ptr noundef %1, ptr noundef %2) #0 {
  %4 = alloca i32, align 4
  %5 = alloca ptr, align 8
  %6 = alloca ptr, align 8
  %7 = alloca ptr, align 8
  %8 = alloca ptr, align 8
  %9 = alloca ptr, align 8
  %10 = alloca ptr, align 8
  %11 = alloca ptr, align 8
  %12 = alloca i64, align 8
  %13 = alloca i32, align 4
  store ptr %0, ptr %5, align 8, !tbaa !22
  store ptr %1, ptr %6, align 8, !tbaa !29
  store ptr %2, ptr %7, align 8, !tbaa !24
  call void @llvm.lifetime.start.p0(i64 8, ptr %8) #4
  %14 = load ptr, ptr %5, align 8, !tbaa !22
  store ptr %14, ptr %8, align 8, !tbaa !8
  call void @llvm.lifetime.start.p0(i64 8, ptr %9) #4
  call void @llvm.lifetime.start.p0(i64 8, ptr %10) #4
  call void @llvm.lifetime.start.p0(i64 8, ptr %11) #4
  call void @llvm.lifetime.start.p0(i64 8, ptr %12) #4
  %15 = load ptr, ptr %8, align 8, !tbaa !8
  %16 = icmp ne ptr %15, null
  br i1 %16, label %18, label %17

17:                                               ; preds = %3
  store i32 1, ptr %4, align 4
  store i32 1, ptr %13, align 4
  br label %77

18:                                               ; preds = %3
  %19 = load ptr, ptr %6, align 8, !tbaa !29
  %20 = icmp ne ptr %19, null
  br i1 %20, label %24, label %21

21:                                               ; preds = %18
  %22 = load ptr, ptr %8, align 8, !tbaa !8
  %23 = getelementptr inbounds nuw %struct.msszdd_decompressor_p, ptr %22, i32 0, i32 2
  store i32 1, ptr %23, align 8, !tbaa !21
  store i32 1, ptr %4, align 4
  store i32 1, ptr %13, align 4
  br label %77

24:                                               ; preds = %18
  %25 = load ptr, ptr %8, align 8, !tbaa !8
  %26 = getelementptr inbounds nuw %struct.msszdd_decompressor_p, ptr %25, i32 0, i32 1
  %27 = load ptr, ptr %26, align 8, !tbaa !20
  store ptr %27, ptr %11, align 8, !tbaa !3
  %28 = load ptr, ptr %6, align 8, !tbaa !29
  %29 = getelementptr inbounds nuw %struct.msszddd_header_p, ptr %28, i32 0, i32 1
  %30 = load ptr, ptr %29, align 8, !tbaa !31
  store ptr %30, ptr %9, align 8, !tbaa !27
  %31 = load ptr, ptr %6, align 8, !tbaa !29
  %32 = getelementptr inbounds nuw %struct.msszddd_header, ptr %31, i32 0, i32 0
  %33 = load i32, ptr %32, align 8, !tbaa !39
  %34 = icmp eq i32 %33, 0
  %35 = select i1 %34, i32 14, i32 12
  %36 = sext i32 %35 to i64
  store i64 %36, ptr %12, align 8, !tbaa !40
  %37 = load ptr, ptr %11, align 8, !tbaa !3
  %38 = getelementptr inbounds nuw %struct.mspack_system, ptr %37, i32 0, i32 4
  %39 = load ptr, ptr %38, align 8, !tbaa !41
  %40 = load ptr, ptr %9, align 8, !tbaa !27
  %41 = load i64, ptr %12, align 8, !tbaa !40
  %42 = call i32 %39(ptr noundef %40, i64 noundef %41, i32 noundef 0)
  %43 = icmp ne i32 %42, 0
  br i1 %43, label %44, label %47

44:                                               ; preds = %24
  %45 = load ptr, ptr %8, align 8, !tbaa !8
  %46 = getelementptr inbounds nuw %struct.msszdd_decompressor_p, ptr %45, i32 0, i32 2
  store i32 5, ptr %46, align 8, !tbaa !21
  store i32 5, ptr %4, align 4
  store i32 1, ptr %13, align 4
  br label %77

47:                                               ; preds = %24
  %48 = load ptr, ptr %11, align 8, !tbaa !3
  %49 = getelementptr inbounds nuw %struct.mspack_system, ptr %48, i32 0, i32 0
  %50 = load ptr, ptr %49, align 8, !tbaa !26
  %51 = load ptr, ptr %11, align 8, !tbaa !3
  %52 = load ptr, ptr %7, align 8, !tbaa !24
  %53 = call ptr %50(ptr noundef %51, ptr noundef %52, i32 noundef 1)
  store ptr %53, ptr %10, align 8, !tbaa !27
  %54 = icmp ne ptr %53, null
  br i1 %54, label %58, label %55

55:                                               ; preds = %47
  %56 = load ptr, ptr %8, align 8, !tbaa !8
  %57 = getelementptr inbounds nuw %struct.msszdd_decompressor_p, ptr %56, i32 0, i32 2
  store i32 2, ptr %57, align 8, !tbaa !21
  store i32 2, ptr %4, align 4
  store i32 1, ptr %13, align 4
  br label %77

58:                                               ; preds = %47
  %59 = load ptr, ptr %11, align 8, !tbaa !3
  %60 = load ptr, ptr %9, align 8, !tbaa !27
  %61 = load ptr, ptr %10, align 8, !tbaa !27
  %62 = load ptr, ptr %6, align 8, !tbaa !29
  %63 = getelementptr inbounds nuw %struct.msszddd_header, ptr %62, i32 0, i32 0
  %64 = load i32, ptr %63, align 8, !tbaa !39
  %65 = icmp eq i32 %64, 0
  %66 = select i1 %65, i32 0, i32 2
  %67 = call i32 @lzss_decompress(ptr noundef %59, ptr noundef %60, ptr noundef %61, i32 noundef 2048, i32 noundef %66)
  %68 = load ptr, ptr %8, align 8, !tbaa !8
  %69 = getelementptr inbounds nuw %struct.msszdd_decompressor_p, ptr %68, i32 0, i32 2
  store i32 %67, ptr %69, align 8, !tbaa !21
  %70 = load ptr, ptr %11, align 8, !tbaa !3
  %71 = getelementptr inbounds nuw %struct.mspack_system, ptr %70, i32 0, i32 1
  %72 = load ptr, ptr %71, align 8, !tbaa !35
  %73 = load ptr, ptr %10, align 8, !tbaa !27
  call void %72(ptr noundef %73)
  %74 = load ptr, ptr %8, align 8, !tbaa !8
  %75 = getelementptr inbounds nuw %struct.msszdd_decompressor_p, ptr %74, i32 0, i32 2
  %76 = load i32, ptr %75, align 8, !tbaa !21
  store i32 %76, ptr %4, align 4
  store i32 1, ptr %13, align 4
  br label %77

77:                                               ; preds = %58, %55, %44, %21, %17
  call void @llvm.lifetime.end.p0(i64 8, ptr %12) #4
  call void @llvm.lifetime.end.p0(i64 8, ptr %11) #4
  call void @llvm.lifetime.end.p0(i64 8, ptr %10) #4
  call void @llvm.lifetime.end.p0(i64 8, ptr %9) #4
  call void @llvm.lifetime.end.p0(i64 8, ptr %8) #4
  %78 = load i32, ptr %4, align 4
  ret i32 %78
}