; Function Attrs: nounwind uwtable
define internal i32 @szddd_extract(ptr noundef %0, ptr noundef readonly %1, ptr noundef %2) #0 {
  %.not = icmp eq ptr %0, null
  br i1 %.not, label %34, label %4

4:                                                ; preds = %3
  %.not26 = icmp eq ptr %1, null
  br i1 %.not26, label %5, label %7

5:                                                ; preds = %4
  %6 = getelementptr inbounds nuw i8, ptr %0, i64 48
  store i32 1, ptr %6, align 8, !tbaa !18
  br label %34

7:                                                ; preds = %4
  %8 = getelementptr inbounds nuw i8, ptr %0, i64 40
  %9 = load ptr, ptr %8, align 8, !tbaa !17
  %10 = getelementptr inbounds nuw i8, ptr %1, i64 24
  %11 = load ptr, ptr %10, align 8, !tbaa !20
  %12 = load i32, ptr %1, align 8, !tbaa !26
  %13 = icmp eq i32 %12, 0
  %14 = select i1 %13, i64 14, i64 12
  %15 = getelementptr inbounds nuw i8, ptr %9, i64 32
  %16 = load ptr, ptr %15, align 8, !tbaa !32
  %17 = tail call i32 %16(ptr noundef %11, i64 noundef %14, i32 noundef 0) #5
  %.not27 = icmp eq i32 %17, 0
  br i1 %.not27, label %20, label %18

18:                                               ; preds = %7
  %19 = getelementptr inbounds nuw i8, ptr %0, i64 48
  store i32 5, ptr %19, align 8, !tbaa !18
  br label %34

20:                                               ; preds = %7
  %21 = load ptr, ptr %9, align 8, !tbaa !19
  %22 = tail call ptr %21(ptr noundef nonnull %9, ptr noundef %2, i32 noundef 1) #5
  %.not28 = icmp eq ptr %22, null
  br i1 %.not28, label %23, label %25

23:                                               ; preds = %20
  %24 = getelementptr inbounds nuw i8, ptr %0, i64 48
  store i32 2, ptr %24, align 8, !tbaa !18
  br label %34

25:                                               ; preds = %20
  %26 = load i32, ptr %1, align 8, !tbaa !26
  %27 = icmp eq i32 %26, 0
  %28 = select i1 %27, i32 0, i32 2
  %29 = tail call i32 @lzss_decompress(ptr noundef nonnull %9, ptr noundef %11, ptr noundef nonnull %22, i32 noundef 2048, i32 noundef %28) #5
  %30 = getelementptr inbounds nuw i8, ptr %0, i64 48
  store i32 %29, ptr %30, align 8, !tbaa !18
  %31 = getelementptr inbounds nuw i8, ptr %9, i64 8
  %32 = load ptr, ptr %31, align 8, !tbaa !30
  tail call void %32(ptr noundef nonnull %22) #5
  %33 = load i32, ptr %30, align 8, !tbaa !18
  br label %34

34:                                               ; preds = %3, %25, %23, %18, %5
  %.0 = phi i32 [ 5, %18 ], [ %33, %25 ], [ 2, %23 ], [ 1, %5 ], [ 1, %3 ]
  ret i32 %.0
}